target datalayout = "e-m:e-p270:32:32-p271:32:32-p272:64:64-i64:64-i128:128-f80:128-n8:16:32:64-S128"
target triple = "x86_64-pc-linux-gnu"

%class.GrowableArrayBase = type { i32, i32 }
%class.MutexLocker = type { %class.MutexLockerImpl }
%class.MutexLockerImpl = type { ptr }
%class.GrowableArrayView.87 = type { %class.GrowableArrayBase, ptr }

@.str.9 = private unnamed_addr constant [37 x i8] c"src/hotspot/share/prims/whitebox.cpp\00", align 1
@g_assert_poison = external global ptr, align 8
@WhiteBoxAPI = external global i8, align 1
@.str.36 = private unnamed_addr constant [30 x i8] c"guarantee(WhiteBoxAPI) failed\00", align 1
@.str.37 = private unnamed_addr constant [51 x i8] c"internal testing API :: WhiteBox has to be enabled\00", align 1
@CodeCache_lock = external global ptr, align 8
@.str.38 = private unnamed_addr constant [14 x i8] c"WB::DummyBlob\00", align 1
@_ZN13MemoryService16_code_heap_poolsE = external global ptr, align 8

; Function Attrs: mustprogress nounwind uwtable
define linkonce_odr hidden noundef nonnull align 8 dereferenceable(8) ptr @_ZN17GrowableArrayViewIP10MemoryPoolE2atEi(ptr noundef nonnull align 8 dereferenceable(16) %0, i32 noundef %1) #1 comdat align 2 {
  %3 = alloca ptr, align 8
  %4 = alloca i32, align 4
  store ptr %0, ptr %3, align 8
  store i32 %1, ptr %4, align 4
  %5 = load ptr, ptr %3, align 8
  %6 = getelementptr inbounds %class.GrowableArrayView.87, ptr %5, i32 0, i32 1
  %7 = load ptr, ptr %6, align 8
  %8 = load i32, ptr %4, align 4
  %9 = sext i32 %8 to i64
  %10 = getelementptr inbounds ptr, ptr %7, i64 %9
  ret ptr %10
}

; Function Attrs: mustprogress nounwind uwtable
define linkonce_odr hidden noundef i32 @_ZNK17GrowableArrayBase6lengthEv(ptr noundef nonnull align 4 dereferenceable(8) %0) #1 comdat align 2 {
  %2 = alloca ptr, align 8
  store ptr %0, ptr %2, align 8
  %3 = load ptr, ptr %2, align 8
  %4 = getelementptr inbounds %class.GrowableArrayBase, ptr %3, i32 0, i32 0
  %5 = load i32, ptr %4, align 4
  ret i32 %5
}

; Function Attrs: mustprogress nounwind uwtable
define linkonce_odr hidden void @_ZN15MutexLockerImplD2Ev(ptr noundef nonnull align 8 dereferenceable(8) %0) unnamed_addr #1 comdat align 2 {
  %2 = alloca ptr, align 8
  store ptr %0, ptr %2, align 8
  %3 = load ptr, ptr %2, align 8
  %4 = getelementptr inbounds %class.MutexLockerImpl, ptr %3, i32 0, i32 0
  %5 = load ptr, ptr %4, align 8
  %6 = icmp ne ptr %5, null
  br i1 %6, label %7, label %10

7:                                                ; preds = %1
  %8 = getelementptr inbounds %class.MutexLockerImpl, ptr %3, i32 0, i32 0
  %9 = load ptr, ptr %8, align 8
  call void @_ZN5Mutex6unlockEv(ptr noundef nonnull align 8 dereferenceable(104) %9)
  br label %10

10:                                               ; preds = %7, %1
  ret void
}

; Function Attrs: mustprogress nounwind uwtable
define linkonce_odr hidden void @_ZN15MutexLockerImplC2EP5MutexNS0_18SafepointCheckFlagE(ptr noundef nonnull align 8 dereferenceable(8) %0, ptr noundef %1, i32 noundef %2) unnamed_addr #1 comdat align 2 {
  %4 = alloca ptr, align 8
  %5 = alloca ptr, align 8
  %6 = alloca i32, align 4
  %7 = alloca i8, align 1
  store ptr %0, ptr %4, align 8
  store ptr %1, ptr %5, align 8
  store i32 %2, ptr %6, align 4
  %8 = load ptr, ptr %4, align 8
  %9 = getelementptr inbounds %class.MutexLockerImpl, ptr %8, i32 0, i32 0
  %10 = load ptr, ptr %5, align 8
  store ptr %10, ptr %9, align 8
  %11 = load i32, ptr %6, align 4
  %12 = icmp eq i32 %11, 1
  %13 = zext i1 %12 to i8
  store i8 %13, ptr %7, align 1
  %14 = getelementptr inbounds %class.MutexLockerImpl, ptr %8, i32 0, i32 0
  %15 = load ptr, ptr %14, align 8
  %16 = icmp ne ptr %15, null
  br i1 %16, label %17, label %27

17:                                               ; preds = %3
  %18 = load i8, ptr %7, align 1
  %19 = trunc i8 %18 to i1
  br i1 %19, label %20, label %23

20:                                               ; preds = %17
  %21 = getelementptr inbounds %class.MutexLockerImpl, ptr %8, i32 0, i32 0
  %22 = load ptr, ptr %21, align 8
  call void @_ZN5Mutex28lock_without_safepoint_checkEv(ptr noundef nonnull align 8 dereferenceable(104) %22)
  br label %26

23:                                               ; preds = %17
  %24 = getelementptr inbounds %class.MutexLockerImpl, ptr %8, i32 0, i32 0
  %25 = load ptr, ptr %24, align 8
  call void @_ZN5Mutex4lockEv(ptr noundef nonnull align 8 dereferenceable(104) %25)
  br label %26

26:                                               ; preds = %23, %20
  br label %27

27:                                               ; preds = %26, %3
  ret void
}

; Function Attrs: mustprogress nounwind uwtable
define linkonce_odr hidden noundef i32 @_Z10align_downIiiTnNSt9enable_ifIXcvbsr3std11is_integralIT_EE5valueEiE4typeELi0EES1_S1_T0_(i32 noundef %0, i32 noundef %1) #1 comdat {
  %3 = alloca i32, align 4
  %4 = alloca i32, align 4
  %5 = alloca i32, align 4
  store i32 %0, ptr %3, align 4
  store i32 %1, ptr %4, align 4
  %6 = load i32, ptr %3, align 4
  %7 = load i32, ptr %4, align 4
  %8 = call noundef i32 @_ZL14alignment_maskIiTnNSt9enable_ifIXcvbsr3std11is_integralIT_EE5valueEiE4typeELi0EES1_S1_(i32 noundef %7)
  %9 = xor i32 %8, -1
  %10 = and i32 %6, %9
  store i32 %10, ptr %5, align 4
  %11 = load i32, ptr %5, align 4
  ret i32 %11
}

; Function Attrs: mustprogress nounwind uwtable
define linkonce_odr hidden noundef i32 @_Z12checked_castIiiET_T0_(i32 noundef %0) #1 comdat {
  %2 = alloca i32, align 4
  %3 = alloca i32, align 4
  store i32 %0, ptr %2, align 4
  %4 = load i32, ptr %2, align 4
  store i32 %4, ptr %3, align 4
  %5 = load i32, ptr %3, align 4
  ret i32 %5
}

; Function Attrs: mustprogress nounwind uwtable
define internal noundef i32 @_ZL14alignment_maskIiTnNSt9enable_ifIXcvbsr3std11is_integralIT_EE5valueEiE4typeELi0EES1_S1_(i32 noundef %0) #1 {
  %2 = alloca i32, align 4
  store i32 %0, ptr %2, align 4
  %3 = load i32, ptr %2, align 4
  %4 = sub nsw i32 %3, 1
  ret i32 %4
}

; Function Attrs: mustprogress nounwind uwtable
define linkonce_odr hidden void @_ZN13MemoryService29track_code_cache_memory_usageEv() #1 comdat align 2 {
  %1 = alloca i32, align 4
  store i32 0, ptr %1, align 4
  br label %2

2:                                                ; preds = %12, %0
  %3 = load i32, ptr %1, align 4
  %4 = load ptr, ptr @_ZN13MemoryService16_code_heap_poolsE, align 8
  %5 = call noundef i32 @_ZNK17GrowableArrayBase6lengthEv(ptr noundef nonnull align 4 dereferenceable(8) %4)
  %6 = icmp slt i32 %3, %5
  br i1 %6, label %7, label %15

7:                                                ; preds = %2
  %8 = load ptr, ptr @_ZN13MemoryService16_code_heap_poolsE, align 8
  %9 = load i32, ptr %1, align 4
  %10 = call noundef nonnull align 8 dereferenceable(8) ptr @_ZN17GrowableArrayViewIP10MemoryPoolE2atEi(ptr noundef nonnull align 8 dereferenceable(16) %8, i32 noundef %9)
  %11 = load ptr, ptr %10, align 8
  call void @_ZN13MemoryService23track_memory_pool_usageEP10MemoryPool(ptr noundef %11)
  br label %12

12:                                               ; preds = %7
  %13 = load i32, ptr %1, align 4
  %14 = add nsw i32 %13, 1
  store i32 %14, ptr %1, align 4
  br label %2, !llvm.loop !12

15:                                               ; preds = %2
  ret void
}

; Function Attrs: mustprogress nounwind uwtable
define linkonce_odr hidden void @_ZN11MutexLockerD2Ev(ptr noundef nonnull align 8 dereferenceable(8) %0) unnamed_addr #1 comdat align 2 {
  %2 = alloca ptr, align 8
  store ptr %0, ptr %2, align 8
  %3 = load ptr, ptr %2, align 8
  call void @_ZN15MutexLockerImplD2Ev(ptr noundef nonnull align 8 dereferenceable(8) %3) #11
  ret void
}

; Function Attrs: mustprogress nounwind uwtable
define linkonce_odr hidden void @_ZN11MutexLockerC2EP5MutexNS0_18SafepointCheckFlagE(ptr noundef nonnull align 8 dereferenceable(8) %0, ptr noundef %1, i32 noundef %2) unnamed_addr #1 comdat align 2 {
  %4 = alloca ptr, align 8
  %5 = alloca ptr, align 8
  %6 = alloca i32, align 4
  store ptr %0, ptr %4, align 8
  store ptr %1, ptr %5, align 8
  store i32 %2, ptr %6, align 4
  %7 = load ptr, ptr %4, align 8
  %8 = load ptr, ptr %5, align 8
  %9 = load i32, ptr %6, align 4
  call void @_ZN15MutexLockerImplC2EP5MutexNS0_18SafepointCheckFlagE(ptr noundef nonnull align 8 dereferenceable(8) %7, ptr noundef %8, i32 noundef %9)
  ret void
}

; Function Attrs: mustprogress nounwind uwtable
define linkonce_odr hidden noundef i32 @_Z8align_upIiiTnNSt9enable_ifIXcvbsr3std11is_integralIT_EE5valueEiE4typeELi0EES1_S1_T0_(i32 noundef %0, i32 noundef %1) #1 comdat {
  %3 = alloca i32, align 4
  %4 = alloca i32, align 4
  %5 = alloca i32, align 4
  store i32 %0, ptr %3, align 4
  store i32 %1, ptr %4, align 4
  %6 = load i32, ptr %3, align 4
  %7 = load i32, ptr %4, align 4
  %8 = call noundef i32 @_ZL14alignment_maskIiTnNSt9enable_ifIXcvbsr3std11is_integralIT_EE5valueEiE4typeELi0EES1_S1_(i32 noundef %7)
  %9 = add nsw i32 %6, %8
  %10 = call noundef i32 @_Z12checked_castIiiET_T0_(i32 noundef %9)
  store i32 %10, ptr %5, align 4
  %11 = load i32, ptr %5, align 4
  %12 = load i32, ptr %4, align 4
  %13 = call noundef i32 @_Z10align_downIiiTnNSt9enable_ifIXcvbsr3std11is_integralIT_EE5valueEiE4typeELi0EES1_S1_T0_(i32 noundef %11, i32 noundef %12)
  ret i32 %13
}

; Function Attrs: mustprogress nounwind uwtable
define hidden noundef ptr @_ZN8WhiteBox18allocate_code_blobEi12CodeBlobType(i32 noundef %0, i32 noundef %1) #1 align 2 {
  %3 = alloca i32, align 4
  %4 = alloca i32, align 4
  %5 = alloca ptr, align 8
  %6 = alloca i32, align 4
  %7 = alloca %class.MutexLocker, align 8
  store i32 %0, ptr %3, align 4
  store i32 %1, ptr %4, align 4
  br label %8

8:                                                ; preds = %2
  %9 = load i8, ptr @WhiteBoxAPI, align 1
  %10 = trunc i8 %9 to i1
  br i1 %10, label %13, label %11

11:                                               ; preds = %8
  %12 = load ptr, ptr @g_assert_poison, align 8
  store i8 88, ptr %12, align 1
  call void (ptr, i32, ptr, ptr, ...) @_Z15report_vm_errorPKciS0_S0_z(ptr noundef @.str.9, i32 noundef 1607, ptr noundef @.str.36, ptr noundef @.str.37) #12
  unreachable

13:                                               ; preds = %8
  br label %14

14:                                               ; preds = %13
  %15 = call noundef i32 @_ZN8CodeBlob17align_code_offsetEi(i32 noundef 56)
  store i32 %15, ptr %6, align 4
  %16 = load i32, ptr %6, align 4
  %17 = load i32, ptr %3, align 4
  %18 = icmp slt i32 %16, %17
  br i1 %18, label %19, label %26

19:                                               ; preds = %14
  %20 = load i32, ptr %3, align 4
  %21 = load i32, ptr %6, align 4
  %22 = sub nsw i32 %20, %21
  %23 = call noundef i32 @_Z8align_upIiiTnNSt9enable_ifIXcvbsr3std11is_integralIT_EE5valueEiE4typeELi0EES1_S1_T0_(i32 noundef %22, i32 noundef 8)
  %24 = load i32, ptr %6, align 4
  %25 = add nsw i32 %24, %23
  store i32 %25, ptr %6, align 4
  br label %26

26:                                               ; preds = %19, %14
  %27 = load ptr, ptr @CodeCache_lock, align 8
  call void @_ZN11MutexLockerC2EP5MutexNS0_18SafepointCheckFlagE(ptr noundef nonnull align 8 dereferenceable(8) %7, ptr noundef %27, i32 noundef 1)
  %28 = load i32, ptr %6, align 4
  %29 = load i32, ptr %4, align 4
  %30 = call noundef ptr @_ZN9CodeCache8allocateEj12CodeBlobTypebS0_(i32 noundef %28, i32 noundef %29, i1 noundef zeroext true, i32 noundef 3)
  store ptr %30, ptr %5, align 8
  %31 = load ptr, ptr %5, align 8
  %32 = icmp ne ptr %31, null
  br i1 %32, label %33, label %36

33:                                               ; preds = %26
  %34 = load ptr, ptr %5, align 8
  %35 = load i32, ptr %6, align 4
  call void @_ZN10BufferBlobC1EPKc12CodeBlobKindi(ptr noundef nonnull align 8 dereferenceable(54) %34, ptr noundef @.str.38, i8 noundef zeroext 2, i32 noundef %35)
  br label %36

36:                                               ; preds = %33, %26
  call void @_ZN11MutexLockerD2Ev(ptr noundef nonnull align 8 dereferenceable(8) %7) #11
  call void @_ZN13MemoryService29track_code_cache_memory_usageEv()
  %37 = load ptr, ptr %5, align 8
  ret ptr %37
}