; Function Attrs: mustprogress nounwind uwtable
define hidden noundef ptr @_ZN8WhiteBox18allocate_code_blobEi12CodeBlobType(i32 noundef %0, i32 noundef %1) local_unnamed_addr #0 align 2 {
  %3 = load i8, ptr @WhiteBoxAPI, align 1
  %4 = trunc i8 %3 to i1
  br i1 %4, label %7, label %5

5:                                                ; preds = %2
  %6 = load ptr, ptr @g_assert_poison, align 8
  store i8 88, ptr %6, align 1
  tail call void (ptr, i32, ptr, ptr, ...) @_Z15report_vm_errorPKciS0_S0_z(ptr noundef nonnull @.str.9, i32 noundef 1607, ptr noundef nonnull @.str.36, ptr noundef nonnull @.str.37) #16
  unreachable

7:                                                ; preds = %2
  %8 = tail call noundef i32 @_ZN8CodeBlob17align_code_offsetEi(i32 noundef 56) #15
  %9 = icmp slt i32 %8, %0
  br i1 %9, label %10, label %16

10:                                               ; preds = %7
  %11 = xor i32 %8, -1
  %12 = add i32 %11, %0
  %13 = and i32 %12, -8
  %14 = add i32 %8, 8
  %15 = add i32 %14, %13
  br label %16

16:                                               ; preds = %10, %7
  %.0 = phi i32 [ %15, %10 ], [ %8, %7 ]
  %17 = load ptr, ptr @CodeCache_lock, align 8
  %.not.i.i = icmp eq ptr %17, null
  br i1 %.not.i.i, label %_ZN11MutexLockerC2EP5MutexNS0_18SafepointCheckFlagE.exit, label %18

18:                                               ; preds = %16
  tail call void @_ZN5Mutex28lock_without_safepoint_checkEv(ptr noundef nonnull align 8 dereferenceable(104) %17) #15
  br label %_ZN11MutexLockerC2EP5MutexNS0_18SafepointCheckFlagE.exit

_ZN11MutexLockerC2EP5MutexNS0_18SafepointCheckFlagE.exit: ; preds = %16, %18
  %19 = tail call noundef ptr @_ZN9CodeCache8allocateEj12CodeBlobTypebS0_(i32 noundef %.0, i32 noundef %1, i1 noundef zeroext true, i32 noundef 3) #15
  %.not = icmp eq ptr %19, null
  br i1 %.not, label %21, label %20

20:                                               ; preds = %_ZN11MutexLockerC2EP5MutexNS0_18SafepointCheckFlagE.exit
  tail call void @_ZN10BufferBlobC1EPKc12CodeBlobKindi(ptr noundef nonnull align 8 dereferenceable(54) %19, ptr noundef nonnull @.str.38, i8 noundef zeroext 2, i32 noundef %.0) #15
  br label %21

21:                                               ; preds = %20, %_ZN11MutexLockerC2EP5MutexNS0_18SafepointCheckFlagE.exit
  br i1 %.not.i.i, label %_ZN11MutexLockerD2Ev.exit, label %22

22:                                               ; preds = %21
  tail call void @_ZN5Mutex6unlockEv(ptr noundef nonnull align 8 dereferenceable(104) %17) #15
  br label %_ZN11MutexLockerD2Ev.exit

_ZN11MutexLockerD2Ev.exit:                        ; preds = %21, %22
  %23 = load ptr, ptr @_ZN13MemoryService16_code_heap_poolsE, align 8
  %24 = load i32, ptr %23, align 4
  %25 = icmp sgt i32 %24, 0
  br i1 %25, label %.lr.ph.i, label %_ZN13MemoryService29track_code_cache_memory_usageEv.exit

.lr.ph.i:                                         ; preds = %_ZN11MutexLockerD2Ev.exit, %.lr.ph.i
  %indvars.iv.i = phi i64 [ %indvars.iv.next.i, %.lr.ph.i ], [ 0, %_ZN11MutexLockerD2Ev.exit ]
  %26 = phi ptr [ %31, %.lr.ph.i ], [ %23, %_ZN11MutexLockerD2Ev.exit ]
  %27 = getelementptr inbounds i8, ptr %26, i64 8
  %28 = load ptr, ptr %27, align 8
  %29 = getelementptr inbounds ptr, ptr %28, i64 %indvars.iv.i
  %30 = load ptr, ptr %29, align 8
  tail call void @_ZN13MemoryService23track_memory_pool_usageEP10MemoryPool(ptr noundef %30) #15
  %indvars.iv.next.i = add nuw nsw i64 %indvars.iv.i, 1
  %31 = load ptr, ptr @_ZN13MemoryService16_code_heap_poolsE, align 8
  %32 = load i32, ptr %31, align 4
  %33 = sext i32 %32 to i64
  %34 = icmp slt i64 %indvars.iv.next.i, %33
  br i1 %34, label %.lr.ph.i, label %_ZN13MemoryService29track_code_cache_memory_usageEv.exit, !llvm.loop !20

_ZN13MemoryService29track_code_cache_memory_usageEv.exit: ; preds = %.lr.ph.i, %_ZN11MutexLockerD2Ev.exit
  ret ptr %19
}